target datalayout = "e-m:e-p270:32:32-p271:32:32-p272:64:64-i64:64-i128:128-f80:128-n8:16:32:64-S128"
target triple = "x86_64-pc-linux-gnu"

%struct.PHP_WHIRLPOOL_CTX = type { [8 x i64], [32 x i8], %struct.anon }
%struct.anon = type { i32, i32, [64 x i8] }

; Function Attrs: nounwind uwtable
define void @PHP_WHIRLPOOLUpdate(ptr noundef %0, ptr noundef %1, i64 noundef %2) #0 {
  %4 = alloca ptr, align 8
  %5 = alloca ptr, align 8
  %6 = alloca i64, align 8
  %7 = alloca i64, align 8
  %8 = alloca i32, align 4
  %9 = alloca i32, align 4
  %10 = alloca i32, align 4
  %11 = alloca ptr, align 8
  %12 = alloca ptr, align 8
  %13 = alloca ptr, align 8
  %14 = alloca i32, align 4
  %15 = alloca i32, align 4
  %16 = alloca i32, align 4
  %17 = alloca i32, align 4
  %18 = alloca i32, align 4
  %19 = alloca i64, align 8
  store ptr %0, ptr %4, align 8
  store ptr %1, ptr %5, align 8
  store i64 %2, ptr %6, align 8
  %20 = load i64, ptr %6, align 8
  %21 = mul i64 %20, 8
  store i64 %21, ptr %7, align 8
  store i32 0, ptr %8, align 4
  %22 = load i64, ptr %7, align 8
  %23 = trunc i64 %22 to i32
  %24 = and i32 %23, 7
  %25 = sub nsw i32 8, %24
  %26 = and i32 %25, 7
  store i32 %26, ptr %9, align 4
  %27 = load ptr, ptr %4, align 8
  %28 = getelementptr inbounds %struct.PHP_WHIRLPOOL_CTX, ptr %27, i32 0, i32 2
  %29 = getelementptr inbounds %struct.anon, ptr %28, i32 0, i32 1
  %30 = load i32, ptr %29, align 4
  %31 = and i32 %30, 7
  store i32 %31, ptr %10, align 4
  %32 = load ptr, ptr %5, align 8
  store ptr %32, ptr %11, align 8
  %33 = load ptr, ptr %4, align 8
  %34 = getelementptr inbounds %struct.PHP_WHIRLPOOL_CTX, ptr %33, i32 0, i32 2
  %35 = getelementptr inbounds %struct.anon, ptr %34, i32 0, i32 2
  %36 = getelementptr inbounds [64 x i8], ptr %35, i64 0, i64 0
  store ptr %36, ptr %12, align 8
  %37 = load ptr, ptr %4, align 8
  %38 = getelementptr inbounds %struct.PHP_WHIRLPOOL_CTX, ptr %37, i32 0, i32 1
  %39 = getelementptr inbounds [32 x i8], ptr %38, i64 0, i64 0
  store ptr %39, ptr %13, align 8
  %40 = load ptr, ptr %4, align 8
  %41 = getelementptr inbounds %struct.PHP_WHIRLPOOL_CTX, ptr %40, i32 0, i32 2
  %42 = getelementptr inbounds %struct.anon, ptr %41, i32 0, i32 1
  %43 = load i32, ptr %42, align 4
  store i32 %43, ptr %14, align 4
  %44 = load ptr, ptr %4, align 8
  %45 = getelementptr inbounds %struct.PHP_WHIRLPOOL_CTX, ptr %44, i32 0, i32 2
  %46 = getelementptr inbounds %struct.anon, ptr %45, i32 0, i32 0
  %47 = load i32, ptr %46, align 8
  store i32 %47, ptr %15, align 4
  %48 = load i64, ptr %7, align 8
  store i64 %48, ptr %19, align 8
  store i32 31, ptr %18, align 4
  store i32 0, ptr %17, align 4
  br label %49

49:                                               ; preds = %85, %3
  %50 = load i32, ptr %18, align 4
  %51 = icmp sge i32 %50, 0
  br i1 %51, label %52, label %60

52:                                               ; preds = %49
  %53 = load i32, ptr %17, align 4
  %54 = icmp ne i32 %53, 0
  br i1 %54, label %58, label %55

55:                                               ; preds = %52
  %56 = load i64, ptr %19, align 8
  %57 = icmp ne i64 %56, 0
  br label %58

58:                                               ; preds = %55, %52
  %59 = phi i1 [ true, %52 ], [ %57, %55 ]
  br label %60

60:                                               ; preds = %58, %49
  %61 = phi i1 [ false, %49 ], [ %59, %58 ]
  br i1 %61, label %62, label %88

62:                                               ; preds = %60
  %63 = load ptr, ptr %13, align 8
  %64 = load i32, ptr %18, align 4
  %65 = sext i32 %64 to i64
  %66 = getelementptr inbounds i8, ptr %63, i64 %65
  %67 = load i8, ptr %66, align 1
  %68 = zext i8 %67 to i32
  %69 = load i64, ptr %19, align 8
  %70 = trunc i64 %69 to i32
  %71 = and i32 %70, 255
  %72 = add i32 %68, %71
  %73 = load i32, ptr %17, align 4
  %74 = add i32 %73, %72
  store i32 %74, ptr %17, align 4
  %75 = load i32, ptr %17, align 4
  %76 = trunc i32 %75 to i8
  %77 = load ptr, ptr %13, align 8
  %78 = load i32, ptr %18, align 4
  %79 = sext i32 %78 to i64
  %80 = getelementptr inbounds i8, ptr %77, i64 %79
  store i8 %76, ptr %80, align 1
  %81 = load i32, ptr %17, align 4
  %82 = lshr i32 %81, 8
  store i32 %82, ptr %17, align 4
  %83 = load i64, ptr %19, align 8
  %84 = lshr i64 %83, 8
  store i64 %84, ptr %19, align 8
  br label %85

85:                                               ; preds = %62
  %86 = load i32, ptr %18, align 4
  %87 = add nsw i32 %86, -1
  store i32 %87, ptr %18, align 4
  br label %49

88:                                               ; preds = %60
  br label %89

89:                                               ; preds = %136, %88
  %90 = load i64, ptr %7, align 8
  %91 = icmp ugt i64 %90, 8
  br i1 %91, label %92, label %153

92:                                               ; preds = %89
  %93 = load ptr, ptr %11, align 8
  %94 = load i32, ptr %8, align 4
  %95 = sext i32 %94 to i64
  %96 = getelementptr inbounds i8, ptr %93, i64 %95
  %97 = load i8, ptr %96, align 1
  %98 = zext i8 %97 to i32
  %99 = load i32, ptr %9, align 4
  %100 = shl i32 %98, %99
  %101 = and i32 %100, 255
  %102 = load ptr, ptr %11, align 8
  %103 = load i32, ptr %8, align 4
  %104 = add nsw i32 %103, 1
  %105 = sext i32 %104 to i64
  %106 = getelementptr inbounds i8, ptr %102, i64 %105
  %107 = load i8, ptr %106, align 1
  %108 = zext i8 %107 to i32
  %109 = and i32 %108, 255
  %110 = load i32, ptr %9, align 4
  %111 = sub nsw i32 8, %110
  %112 = ashr i32 %109, %111
  %113 = or i32 %101, %112
  store i32 %113, ptr %16, align 4
  %114 = load i32, ptr %16, align 4
  %115 = load i32, ptr %10, align 4
  %116 = lshr i32 %114, %115
  %117 = trunc i32 %116 to i8
  %118 = zext i8 %117 to i32
  %119 = load ptr, ptr %12, align 8
  %120 = load i32, ptr %15, align 4
  %121 = add nsw i32 %120, 1
  store i32 %121, ptr %15, align 4
  %122 = sext i32 %120 to i64
  %123 = getelementptr inbounds i8, ptr %119, i64 %122
  %124 = load i8, ptr %123, align 1
  %125 = zext i8 %124 to i32
  %126 = or i32 %125, %118
  %127 = trunc i32 %126 to i8
  store i8 %127, ptr %123, align 1
  %128 = load i32, ptr %10, align 4
  %129 = sub nsw i32 8, %128
  %130 = load i32, ptr %14, align 4
  %131 = add nsw i32 %130, %129
  store i32 %131, ptr %14, align 4
  %132 = load i32, ptr %14, align 4
  %133 = icmp eq i32 %132, 512
  br i1 %133, label %134, label %136

134:                                              ; preds = %92
  %135 = load ptr, ptr %4, align 8
  call void @WhirlpoolTransform(ptr noundef %135)
  store i32 0, ptr %15, align 4
  store i32 0, ptr %14, align 4
  br label %136

136:                                              ; preds = %134, %92
  %137 = load i32, ptr %16, align 4
  %138 = load i32, ptr %10, align 4
  %139 = sub nsw i32 8, %138
  %140 = shl i32 %137, %139
  %141 = trunc i32 %140 to i8
  %142 = load ptr, ptr %12, align 8
  %143 = load i32, ptr %15, align 4
  %144 = sext i32 %143 to i64
  %145 = getelementptr inbounds i8, ptr %142, i64 %144
  store i8 %141, ptr %145, align 1
  %146 = load i32, ptr %10, align 4
  %147 = load i32, ptr %14, align 4
  %148 = add nsw i32 %147, %146
  store i32 %148, ptr %14, align 4
  %149 = load i64, ptr %7, align 8
  %150 = sub i64 %149, 8
  store i64 %150, ptr %7, align 8
  %151 = load i32, ptr %8, align 4
  %152 = add nsw i32 %151, 1
  store i32 %152, ptr %8, align 4
  br label %89

153:                                              ; preds = %89
  %154 = load i64, ptr %7, align 8
  %155 = icmp ugt i64 %154, 0
  br i1 %155, label %156, label %177

156:                                              ; preds = %153
  %157 = load ptr, ptr %11, align 8
  %158 = load i32, ptr %8, align 4
  %159 = sext i32 %158 to i64
  %160 = getelementptr inbounds i8, ptr %157, i64 %159
  %161 = load i8, ptr %160, align 1
  %162 = zext i8 %161 to i32
  %163 = load i32, ptr %9, align 4
  %164 = shl i32 %162, %163
  %165 = and i32 %164, 255
  store i32 %165, ptr %16, align 4
  %166 = load i32, ptr %16, align 4
  %167 = load i32, ptr %10, align 4
  %168 = lshr i32 %166, %167
  %169 = load ptr, ptr %12, align 8
  %170 = load i32, ptr %15, align 4
  %171 = sext i32 %170 to i64
  %172 = getelementptr inbounds i8, ptr %169, i64 %171
  %173 = load i8, ptr %172, align 1
  %174 = zext i8 %173 to i32
  %175 = or i32 %174, %168
  %176 = trunc i32 %175 to i8
  store i8 %176, ptr %172, align 1
  br label %178

177:                                              ; preds = %153
  store i32 0, ptr %16, align 4
  br label %178

178:                                              ; preds = %177, %156
  %179 = load i32, ptr %10, align 4
  %180 = sext i32 %179 to i64
  %181 = load i64, ptr %7, align 8
  %182 = add i64 %180, %181
  %183 = icmp ult i64 %182, 8
  br i1 %183, label %184, label %189

184:                                              ; preds = %178
  %185 = load i64, ptr %7, align 8
  %186 = trunc i64 %185 to i32
  %187 = load i32, ptr %14, align 4
  %188 = add nsw i32 %187, %186
  store i32 %188, ptr %14, align 4
  br label %219

189:                                              ; preds = %178
  %190 = load i32, ptr %15, align 4
  %191 = add nsw i32 %190, 1
  store i32 %191, ptr %15, align 4
  %192 = load i32, ptr %10, align 4
  %193 = sub nsw i32 8, %192
  %194 = load i32, ptr %14, align 4
  %195 = add nsw i32 %194, %193
  store i32 %195, ptr %14, align 4
  %196 = load i32, ptr %10, align 4
  %197 = sub nsw i32 8, %196
  %198 = sext i32 %197 to i64
  %199 = load i64, ptr %7, align 8
  %200 = sub i64 %199, %198
  store i64 %200, ptr %7, align 8
  %201 = load i32, ptr %14, align 4
  %202 = icmp eq i32 %201, 512
  br i1 %202, label %203, label %205

203:                                              ; preds = %189
  %204 = load ptr, ptr %4, align 8
  call void @WhirlpoolTransform(ptr noundef %204)
  store i32 0, ptr %15, align 4
  store i32 0, ptr %14, align 4
  br label %205

205:                                              ; preds = %203, %189
  %206 = load i32, ptr %16, align 4
  %207 = load i32, ptr %10, align 4
  %208 = sub nsw i32 8, %207
  %209 = shl i32 %206, %208
  %210 = trunc i32 %209 to i8
  %211 = load ptr, ptr %12, align 8
  %212 = load i32, ptr %15, align 4
  %213 = sext i32 %212 to i64
  %214 = getelementptr inbounds i8, ptr %211, i64 %213
  store i8 %210, ptr %214, align 1
  %215 = load i64, ptr %7, align 8
  %216 = trunc i64 %215 to i32
  %217 = load i32, ptr %14, align 4
  %218 = add nsw i32 %217, %216
  store i32 %218, ptr %14, align 4
  br label %219

219:                                              ; preds = %205, %184
  %220 = load i32, ptr %14, align 4
  %221 = load ptr, ptr %4, align 8
  %222 = getelementptr inbounds %struct.PHP_WHIRLPOOL_CTX, ptr %221, i32 0, i32 2
  %223 = getelementptr inbounds %struct.anon, ptr %222, i32 0, i32 1
  store i32 %220, ptr %223, align 4
  %224 = load i32, ptr %15, align 4
  %225 = load ptr, ptr %4, align 8
  %226 = getelementptr inbounds %struct.PHP_WHIRLPOOL_CTX, ptr %225, i32 0, i32 2
  %227 = getelementptr inbounds %struct.anon, ptr %226, i32 0, i32 0
  store i32 %224, ptr %227, align 8
  ret void
}