; Function Attrs: nounwind uwtable
define void @PHP_WHIRLPOOLUpdate(ptr nocapture noundef %0, ptr nocapture noundef readonly %1, i64 noundef %2) #2 {
  %4 = shl i64 %2, 3
  %5 = getelementptr inbounds i8, ptr %0, i64 96
  %6 = getelementptr inbounds i8, ptr %0, i64 100
  %7 = load i32, ptr %6, align 4
  %8 = and i32 %7, 7
  %9 = getelementptr inbounds i8, ptr %0, i64 104
  %10 = getelementptr inbounds i8, ptr %0, i64 64
  %11 = load i32, ptr %5, align 8
  br label %12

12:                                               ; preds = %3, %16
  %indvars.iv = phi i64 [ 31, %3 ], [ %indvars.iv.next, %16 ]
  %.090 = phi i64 [ %4, %3 ], [ %26, %16 ]
  %.07488 = phi i32 [ 0, %3 ], [ %25, %16 ]
  %13 = icmp ne i32 %.07488, 0
  %14 = icmp ne i64 %.090, 0
  %15 = select i1 %13, i1 true, i1 %14
  br i1 %15, label %16, label %.critedge

16:                                               ; preds = %12
  %17 = getelementptr inbounds i8, ptr %10, i64 %indvars.iv
  %18 = load i8, ptr %17, align 1
  %19 = zext i8 %18 to i32
  %20 = trunc i64 %.090 to i32
  %21 = and i32 %20, 255
  %22 = add nuw nsw i32 %21, %.07488
  %23 = add nuw nsw i32 %22, %19
  %24 = trunc i32 %23 to i8
  store i8 %24, ptr %17, align 1
  %25 = lshr i32 %23, 8
  %26 = lshr i64 %.090, 8
  %indvars.iv.next = add nsw i64 %indvars.iv, -1
  %.not105 = icmp eq i64 %indvars.iv, 0
  br i1 %.not105, label %.critedge, label %12

.critedge:                                        ; preds = %16, %12
  %27 = icmp ugt i64 %4, 8
  br i1 %27, label %.lr.ph, label %._crit_edge

.lr.ph:                                           ; preds = %.critedge
  %28 = sub nuw nsw i32 8, %8
  %29 = add i64 %4, -9
  %30 = lshr i64 %29, 3
  %.phi.trans.insert = sext i32 %11 to i64
  %.phi.trans.insert104 = getelementptr inbounds i8, ptr %9, i64 %.phi.trans.insert
  %.pre = load i8, ptr %.phi.trans.insert104, align 1
  br label %31

31:                                               ; preds = %.lr.ph, %45
  %32 = phi i8 [ %.pre, %.lr.ph ], [ %47, %45 ]
  %indvars.iv101 = phi i64 [ 0, %.lr.ph ], [ %indvars.iv.next102, %45 ]
  %.07694 = phi i32 [ %11, %.lr.ph ], [ %.1, %45 ]
  %.07793 = phi i32 [ %7, %.lr.ph ], [ %50, %45 ]
  %.08192 = phi i64 [ %4, %.lr.ph ], [ %51, %45 ]
  %33 = getelementptr inbounds i8, ptr %1, i64 %indvars.iv101
  %34 = load i8, ptr %33, align 1
  %35 = zext i8 %34 to i32
  %indvars.iv.next102 = add nuw nsw i64 %indvars.iv101, 1
  %36 = lshr i32 %35, %8
  %37 = add nsw i32 %.07694, 1
  %38 = sext i32 %.07694 to i64
  %39 = getelementptr inbounds i8, ptr %9, i64 %38
  %40 = trunc i32 %36 to i8
  %41 = or i8 %32, %40
  store i8 %41, ptr %39, align 1
  %42 = add nsw i32 %.07793, %28
  %43 = icmp eq i32 %42, 512
  br i1 %43, label %44, label %45

44:                                               ; preds = %31
  tail call fastcc void @WhirlpoolTransform(ptr noundef nonnull %0)
  br label %45

45:                                               ; preds = %44, %31
  %.178 = phi i32 [ 0, %44 ], [ %42, %31 ]
  %.1 = phi i32 [ 0, %44 ], [ %37, %31 ]
  %46 = shl nuw nsw i32 %35, %28
  %47 = trunc i32 %46 to i8
  %48 = sext i32 %.1 to i64
  %49 = getelementptr inbounds i8, ptr %9, i64 %48
  store i8 %47, ptr %49, align 1
  %50 = add nsw i32 %.178, %8
  %51 = add i64 %.08192, -8
  %exitcond.not = icmp eq i64 %indvars.iv101, %30
  br i1 %exitcond.not, label %._crit_edge.loopexit, label %31

._crit_edge.loopexit:                             ; preds = %45
  %52 = add nuw nsw i64 %30, 1
  %53 = and i64 %52, 4294967295
  br label %._crit_edge

._crit_edge:                                      ; preds = %._crit_edge.loopexit, %.critedge
  %.082.lcssa = phi i64 [ 0, %.critedge ], [ %53, %._crit_edge.loopexit ]
  %.081.lcssa = phi i64 [ %4, %.critedge ], [ %51, %._crit_edge.loopexit ]
  %.077.lcssa = phi i32 [ %7, %.critedge ], [ %50, %._crit_edge.loopexit ]
  %.076.lcssa = phi i32 [ %11, %.critedge ], [ %.1, %._crit_edge.loopexit ]
  %.not = icmp eq i64 %.081.lcssa, 0
  br i1 %.not, label %.thread, label %54

54:                                               ; preds = %._crit_edge
  %55 = getelementptr inbounds i8, ptr %1, i64 %.082.lcssa
  %56 = load i8, ptr %55, align 1
  %57 = zext i8 %56 to i32
  %58 = lshr i32 %57, %8
  %59 = sext i32 %.076.lcssa to i64
  %60 = getelementptr inbounds i8, ptr %9, i64 %59
  %61 = load i8, ptr %60, align 1
  %62 = trunc i32 %58 to i8
  %63 = or i8 %61, %62
  store i8 %63, ptr %60, align 1
  %.not85 = icmp eq i64 %.081.lcssa, 8
  br i1 %.not85, label %66, label %.thread

.thread:                                          ; preds = %._crit_edge, %54
  %64 = trunc i64 %.081.lcssa to i32
  %65 = add nsw i32 %.077.lcssa, %64
  br label %78

66:                                               ; preds = %54
  %67 = add nsw i32 %.076.lcssa, 1
  %68 = sub nuw nsw i32 8, %8
  %69 = add nsw i32 %.077.lcssa, %68
  %70 = icmp eq i32 %69, 512
  br i1 %70, label %71, label %72

71:                                               ; preds = %66
  tail call fastcc void @WhirlpoolTransform(ptr noundef nonnull %0)
  br label %72

72:                                               ; preds = %71, %66
  %.279 = phi i32 [ 0, %71 ], [ %69, %66 ]
  %.2 = phi i32 [ 0, %71 ], [ %67, %66 ]
  %73 = shl nuw nsw i32 %57, %68
  %74 = trunc i32 %73 to i8
  %75 = sext i32 %.2 to i64
  %76 = getelementptr inbounds i8, ptr %9, i64 %75
  store i8 %74, ptr %76, align 1
  %77 = add nsw i32 %.279, %8
  br label %78

78:                                               ; preds = %72, %.thread
  %.380 = phi i32 [ %65, %.thread ], [ %77, %72 ]
  %.3 = phi i32 [ %.076.lcssa, %.thread ], [ %.2, %72 ]
  store i32 %.380, ptr %6, align 4
  store i32 %.3, ptr %5, align 8
  ret void
}